target datalayout = "e-m:e-p270:32:32-p271:32:32-p272:64:64-i64:64-i128:128-f80:128-n8:16:32:64-S128"
target triple = "x86_64-pc-linux-gnu"

%struct.MachineClass = type { %struct.ObjectClass, ptr, ptr, ptr, ptr, ptr, ptr, ptr, ptr, ptr, ptr, i32, i32, i32, i32, i32, i8, i8, i8, ptr, ptr, ptr, ptr, ptr, ptr, i64, ptr, i8, i8, i8, i32, i8, i8, i32, ptr, ptr, i8, i8, i8, i8, i8, i8, i8, i8, %struct.SMPCompatProps, ptr, ptr, ptr, ptr, ptr, ptr, ptr, i64, ptr }
%struct.ObjectClass = type { ptr, ptr, [4 x ptr], [4 x ptr], ptr, ptr }
%struct.SMPCompatProps = type { i8, i8, i8, i8, i8, i8, i8, [4 x i8] }

@.str.56 = private unnamed_addr constant [8 x i8] c"machine\00", align 1
@.str.57 = private unnamed_addr constant [98 x i8] c"/home/dtcxzyw/WorkSpace/Projects/compilers/llvm-opt-benchmark/bench/qemu/qemu/include/hw/boards.h\00", align 1
@__func__.MACHINE_GET_CLASS = private unnamed_addr constant [18 x i8] c"MACHINE_GET_CLASS\00", align 1
@.str.75 = private unnamed_addr constant [10 x i8] c"bootorder\00", align 1
@.str.128 = private unnamed_addr constant [14 x i8] c"bios-geometry\00", align 1

; Function Attrs: inlinehint nounwind sspstrong uwtable
define internal ptr @MACHINE_GET_CLASS(ptr noundef %0) #2 {
  %2 = alloca ptr, align 8
  store ptr %0, ptr %2, align 8
  %3 = load ptr, ptr %2, align 8
  %4 = call ptr @object_get_class(ptr noundef %3)
  %5 = call ptr @object_class_dynamic_cast_assert(ptr noundef %4, ptr noundef @.str.56, ptr noundef @.str.57, i32 noundef 24, ptr noundef @__func__.MACHINE_GET_CLASS)
  ret ptr %5
}

; Function Attrs: nounwind sspstrong uwtable
define internal void @fw_cfg_machine_reset(ptr noundef %0) #0 {
  %2 = alloca ptr, align 8
  %3 = alloca ptr, align 8
  %4 = alloca ptr, align 8
  %5 = alloca ptr, align 8
  %6 = alloca i64, align 8
  %7 = alloca ptr, align 8
  store ptr %0, ptr %2, align 8
  call void @llvm.lifetime.start.p0(i64 8, ptr %3) #18
  %8 = call ptr @qdev_get_machine()
  %9 = call ptr @MACHINE_GET_CLASS(ptr noundef %8)
  store ptr %9, ptr %3, align 8
  call void @llvm.lifetime.start.p0(i64 8, ptr %4) #18
  %10 = load ptr, ptr %2, align 8
  store ptr %10, ptr %4, align 8
  call void @llvm.lifetime.start.p0(i64 8, ptr %5) #18
  store ptr null, ptr %5, align 8, !annotation !6
  call void @llvm.lifetime.start.p0(i64 8, ptr %6) #18
  store i64 0, ptr %6, align 8, !annotation !6
  call void @llvm.lifetime.start.p0(i64 8, ptr %7) #18
  store ptr null, ptr %7, align 8, !annotation !6
  %11 = call ptr @get_boot_devices_list(ptr noundef %6)
  store ptr %11, ptr %7, align 8
  %12 = load ptr, ptr %4, align 8
  %13 = load ptr, ptr %7, align 8
  %14 = load i64, ptr %6, align 8
  %15 = call ptr @fw_cfg_modify_file(ptr noundef %12, ptr noundef @.str.75, ptr noundef %13, i64 noundef %14)
  store ptr %15, ptr %5, align 8
  %16 = load ptr, ptr %5, align 8
  call void @g_free(ptr noundef %16)
  %17 = load ptr, ptr %3, align 8
  %18 = getelementptr inbounds nuw %struct.MachineClass, ptr %17, i32 0, i32 16
  %19 = load i8, ptr %18, align 4
  %20 = lshr i8 %19, 5
  %21 = and i8 %20, 1
  %22 = zext i8 %21 to i32
  %23 = icmp ne i32 %22, 0
  br i1 %23, label %31, label %24

24:                                               ; preds = %1
  %25 = call ptr @get_boot_devices_lchs_list(ptr noundef %6)
  store ptr %25, ptr %7, align 8
  %26 = load ptr, ptr %4, align 8
  %27 = load ptr, ptr %7, align 8
  %28 = load i64, ptr %6, align 8
  %29 = call ptr @fw_cfg_modify_file(ptr noundef %26, ptr noundef @.str.128, ptr noundef %27, i64 noundef %28)
  store ptr %29, ptr %5, align 8
  %30 = load ptr, ptr %5, align 8
  call void @g_free(ptr noundef %30)
  br label %31

31:                                               ; preds = %24, %1
  call void @llvm.lifetime.end.p0(i64 8, ptr %7) #18
  call void @llvm.lifetime.end.p0(i64 8, ptr %6) #18
  call void @llvm.lifetime.end.p0(i64 8, ptr %5) #18
  call void @llvm.lifetime.end.p0(i64 8, ptr %4) #18
  call void @llvm.lifetime.end.p0(i64 8, ptr %3) #18
  ret void
}