; Function Attrs: nounwind sspstrong uwtable
define internal void @fw_cfg_machine_reset(ptr noundef %0) #2 {
  %2 = alloca i64, align 8
  %3 = tail call ptr @qdev_get_machine() #18
  %4 = tail call ptr @object_get_class(ptr noundef %3) #18
  %5 = tail call ptr @object_class_dynamic_cast_assert(ptr noundef %4, ptr noundef nonnull @.str.56, ptr noundef nonnull @.str.57, i32 noundef 24, ptr noundef nonnull @__func__.MACHINE_GET_CLASS) #18
  call void @llvm.lifetime.start.p0(i64 8, ptr nonnull %2) #18
  store i64 0, ptr %2, align 8, !annotation !7
  %6 = call ptr @get_boot_devices_list(ptr noundef nonnull %2) #18
  %7 = load i64, ptr %2, align 8
  %8 = call ptr @fw_cfg_modify_file(ptr noundef %0, ptr noundef nonnull @.str.75, ptr noundef %6, i64 noundef %7)
  call void @g_free(ptr noundef %8) #18
  %9 = getelementptr inbounds nuw i8, ptr %5, i64 196
  %10 = load i8, ptr %9, align 4
  %11 = and i8 %10, 32
  %.not = icmp eq i8 %11, 0
  br i1 %.not, label %12, label %16

12:                                               ; preds = %1
  %13 = call ptr @get_boot_devices_lchs_list(ptr noundef nonnull %2) #18
  %14 = load i64, ptr %2, align 8
  %15 = call ptr @fw_cfg_modify_file(ptr noundef %0, ptr noundef nonnull @.str.128, ptr noundef %13, i64 noundef %14)
  call void @g_free(ptr noundef %15) #18
  br label %16

16:                                               ; preds = %12, %1
  call void @llvm.lifetime.end.p0(i64 8, ptr nonnull %2) #18
  ret void
}